target datalayout = "e-m:e-p270:32:32-p271:32:32-p272:64:64-i64:64-i128:128-f80:128-n8:16:32:64-S128"
target triple = "x86_64-pc-linux-gnu"

%struct.PCF_FaceRec_ = type { %struct.FT_FaceRec_, %struct.FT_StreamRec_, ptr, ptr, ptr, %struct.PCF_TocRec_, %struct.PCF_AccelRec_, i32, ptr, i64, ptr, %struct.PCF_EncRec_, i64 }
%struct.FT_FaceRec_ = type { i64, i64, i64, i64, i64, ptr, ptr, i32, ptr, i32, ptr, %struct.FT_Generic_, %struct.FT_BBox_, i16, i16, i16, i16, i16, i16, i16, i16, ptr, ptr, ptr, ptr, ptr, ptr, %struct.FT_ListRec_, %struct.FT_Generic_, ptr, ptr }
%struct.FT_BBox_ = type { i64, i64, i64, i64 }
%struct.FT_ListRec_ = type { ptr, ptr }
%struct.FT_Generic_ = type { ptr, ptr }
%struct.FT_StreamRec_ = type { ptr, i64, i64, %union.FT_StreamDesc_, %union.FT_StreamDesc_, ptr, ptr, ptr, ptr, ptr }
%union.FT_StreamDesc_ = type { i64 }
%struct.PCF_TocRec_ = type { i64, i64, ptr }
%struct.PCF_AccelRec_ = type { i8, i8, i8, i8, i8, i8, i8, i64, i64, i64, %struct.PCF_MetricRec_, %struct.PCF_MetricRec_, %struct.PCF_MetricRec_, %struct.PCF_MetricRec_ }
%struct.PCF_MetricRec_ = type { i16, i16, i16, i16, i16, i16, i64 }
%struct.PCF_EncRec_ = type { i16, i16, i16, i16, i16, ptr }
%struct.FT_SizeRec_ = type { ptr, %struct.FT_Generic_, %struct.FT_Size_Metrics_, ptr }
%struct.FT_Size_Metrics_ = type { i16, i16, i64, i64, i64, i64, i64, i64 }

; Function Attrs: nounwind uwtable
define internal i32 @PCF_Size_Select(ptr noundef %0, i64 noundef %1) #0 {
  %3 = alloca ptr, align 8
  %4 = alloca i64, align 8
  %5 = alloca ptr, align 8
  store ptr %0, ptr %3, align 8
  store i64 %1, ptr %4, align 8
  %6 = load ptr, ptr %3, align 8
  %7 = getelementptr inbounds %struct.FT_SizeRec_, ptr %6, i32 0, i32 0
  %8 = load ptr, ptr %7, align 8
  %9 = getelementptr inbounds %struct.PCF_FaceRec_, ptr %8, i32 0, i32 6
  store ptr %9, ptr %5, align 8
  %10 = load ptr, ptr %3, align 8
  %11 = getelementptr inbounds %struct.FT_SizeRec_, ptr %10, i32 0, i32 0
  %12 = load ptr, ptr %11, align 8
  %13 = load i64, ptr %4, align 8
  call void @FT_Select_Metrics(ptr noundef %12, i64 noundef %13)
  %14 = load ptr, ptr %5, align 8
  %15 = getelementptr inbounds %struct.PCF_AccelRec_, ptr %14, i32 0, i32 7
  %16 = load i64, ptr %15, align 8
  %17 = mul nsw i64 %16, 64
  %18 = load ptr, ptr %3, align 8
  %19 = getelementptr inbounds %struct.FT_SizeRec_, ptr %18, i32 0, i32 2
  %20 = getelementptr inbounds %struct.FT_Size_Metrics_, ptr %19, i32 0, i32 4
  store i64 %17, ptr %20, align 8
  %21 = load ptr, ptr %5, align 8
  %22 = getelementptr inbounds %struct.PCF_AccelRec_, ptr %21, i32 0, i32 8
  %23 = load i64, ptr %22, align 8
  %24 = sub nsw i64 0, %23
  %25 = mul nsw i64 %24, 64
  %26 = load ptr, ptr %3, align 8
  %27 = getelementptr inbounds %struct.FT_SizeRec_, ptr %26, i32 0, i32 2
  %28 = getelementptr inbounds %struct.FT_Size_Metrics_, ptr %27, i32 0, i32 5
  store i64 %25, ptr %28, align 8
  %29 = load ptr, ptr %5, align 8
  %30 = getelementptr inbounds %struct.PCF_AccelRec_, ptr %29, i32 0, i32 11
  %31 = getelementptr inbounds %struct.PCF_MetricRec_, ptr %30, i32 0, i32 2
  %32 = load i16, ptr %31, align 4
  %33 = sext i16 %32 to i32
  %34 = mul nsw i32 %33, 64
  %35 = sext i32 %34 to i64
  %36 = load ptr, ptr %3, align 8
  %37 = getelementptr inbounds %struct.FT_SizeRec_, ptr %36, i32 0, i32 2
  %38 = getelementptr inbounds %struct.FT_Size_Metrics_, ptr %37, i32 0, i32 7
  store i64 %35, ptr %38, align 8
  ret i32 0
}