; Function Attrs: nounwind uwtable
define internal noundef i32 @PCF_Size_Select(ptr nocapture noundef %0, i64 noundef %1) #1 {
  %3 = load ptr, ptr %0, align 8
  tail call void @FT_Select_Metrics(ptr noundef %3, i64 noundef %1) #15
  %4 = getelementptr inbounds i8, ptr %3, i64 384
  %5 = load i64, ptr %4, align 8
  %6 = shl nsw i64 %5, 6
  %7 = getelementptr inbounds i8, ptr %0, i64 48
  store i64 %6, ptr %7, align 8
  %8 = getelementptr inbounds i8, ptr %3, i64 392
  %9 = load i64, ptr %8, align 8
  %.neg = mul i64 %9, -64
  %10 = getelementptr inbounds i8, ptr %0, i64 56
  store i64 %.neg, ptr %10, align 8
  %11 = getelementptr inbounds i8, ptr %3, i64 436
  %12 = load i16, ptr %11, align 4
  %13 = sext i16 %12 to i32
  %14 = shl nsw i32 %13, 6
  %15 = sext i32 %14 to i64
  %16 = getelementptr inbounds i8, ptr %0, i64 72
  store i64 %15, ptr %16, align 8
  ret i32 0
}